target datalayout = "e-m:e-p270:32:32-p271:32:32-p272:64:64-i64:64-i128:128-f80:128-n8:16:32:64-S128"
target triple = "x86_64-pc-linux-gnu"

%struct.drbg_fork_result_st = type { [16 x i8], i32, i32, i32, [10 x i8] }

; Function Attrs: nounwind uwtable
define internal i32 @compare_drbg_fork_result(ptr noundef %0, ptr noundef %1) #0 {
  %3 = alloca ptr, align 8
  %4 = alloca ptr, align 8
  %5 = alloca i32, align 4
  %6 = alloca ptr, align 8
  %7 = alloca ptr, align 8
  store ptr %0, ptr %3, align 8, !tbaa !29
  store ptr %1, ptr %4, align 8, !tbaa !29
  call void @llvm.lifetime.start.p0(i64 4, ptr %5) #8
  call void @llvm.lifetime.start.p0(i64 8, ptr %6) #8
  %8 = load ptr, ptr %3, align 8, !tbaa !29
  store ptr %8, ptr %6, align 8, !tbaa !37
  call void @llvm.lifetime.start.p0(i64 8, ptr %7) #8
  %9 = load ptr, ptr %4, align 8, !tbaa !29
  store ptr %9, ptr %7, align 8, !tbaa !37
  %10 = load ptr, ptr %6, align 8, !tbaa !37
  %11 = getelementptr inbounds nuw %struct.drbg_fork_result_st, ptr %10, i32 0, i32 3
  %12 = load i32, ptr %11, align 4, !tbaa !43
  %13 = load ptr, ptr %7, align 8, !tbaa !37
  %14 = getelementptr inbounds nuw %struct.drbg_fork_result_st, ptr %13, i32 0, i32 3
  %15 = load i32, ptr %14, align 4, !tbaa !43
  %16 = sub nsw i32 %12, %15
  store i32 %16, ptr %5, align 4, !tbaa !4
  %17 = load i32, ptr %5, align 4, !tbaa !4
  %18 = icmp eq i32 %17, 0
  br i1 %18, label %19, label %27

19:                                               ; preds = %2
  %20 = load ptr, ptr %6, align 8, !tbaa !37
  %21 = getelementptr inbounds nuw %struct.drbg_fork_result_st, ptr %20, i32 0, i32 0
  %22 = getelementptr inbounds [16 x i8], ptr %21, i64 0, i64 0
  %23 = load ptr, ptr %7, align 8, !tbaa !37
  %24 = getelementptr inbounds nuw %struct.drbg_fork_result_st, ptr %23, i32 0, i32 0
  %25 = getelementptr inbounds [16 x i8], ptr %24, i64 0, i64 0
  %26 = call i32 @memcmp(ptr noundef %22, ptr noundef %25, i64 noundef 16) #9
  store i32 %26, ptr %5, align 4, !tbaa !4
  br label %27

27:                                               ; preds = %19, %2
  %28 = load i32, ptr %5, align 4, !tbaa !4
  %29 = icmp eq i32 %28, 0
  br i1 %29, label %30, label %38

30:                                               ; preds = %27
  %31 = load ptr, ptr %6, align 8, !tbaa !37
  %32 = getelementptr inbounds nuw %struct.drbg_fork_result_st, ptr %31, i32 0, i32 1
  %33 = load i32, ptr %32, align 4, !tbaa !39
  %34 = load ptr, ptr %7, align 8, !tbaa !37
  %35 = getelementptr inbounds nuw %struct.drbg_fork_result_st, ptr %34, i32 0, i32 1
  %36 = load i32, ptr %35, align 4, !tbaa !39
  %37 = sub nsw i32 %33, %36
  store i32 %37, ptr %5, align 4, !tbaa !4
  br label %38

38:                                               ; preds = %30, %27
  %39 = load i32, ptr %5, align 4, !tbaa !4
  call void @llvm.lifetime.end.p0(i64 8, ptr %7) #8
  call void @llvm.lifetime.end.p0(i64 8, ptr %6) #8
  call void @llvm.lifetime.end.p0(i64 4, ptr %5) #8
  ret i32 %39
}