; Function Attrs: mustprogress nofree nounwind willreturn memory(argmem: read) uwtable
define internal i32 @compare_drbg_fork_result(ptr noundef readonly captures(none) %0, ptr noundef readonly captures(none) %1) #10 {
  %3 = getelementptr inbounds nuw i8, ptr %0, i64 24
  %4 = load i32, ptr %3, align 4, !tbaa !24
  %5 = getelementptr inbounds nuw i8, ptr %1, i64 24
  %6 = load i32, ptr %5, align 4, !tbaa !24
  %7 = sub nsw i32 %4, %6
  %8 = icmp eq i32 %7, 0
  br i1 %8, label %9, label %.thread

9:                                                ; preds = %2
  %10 = tail call i32 @memcmp(ptr noundef nonnull dereferenceable(16) %0, ptr noundef nonnull dereferenceable(16) %1, i64 noundef 16) #16
  %11 = icmp eq i32 %10, 0
  br i1 %11, label %12, label %.thread

12:                                               ; preds = %9
  %13 = getelementptr inbounds nuw i8, ptr %0, i64 16
  %14 = load i32, ptr %13, align 4, !tbaa !20
  %15 = getelementptr inbounds nuw i8, ptr %1, i64 16
  %16 = load i32, ptr %15, align 4, !tbaa !20
  %17 = sub nsw i32 %14, %16
  br label %.thread

.thread:                                          ; preds = %2, %12, %9
  %.1 = phi i32 [ %17, %12 ], [ %10, %9 ], [ %7, %2 ]
  ret i32 %.1
}